target datalayout = "e-m:e-p270:32:32-p271:32:32-p272:64:64-i64:64-i128:128-f80:128-n8:16:32:64-S128"
target triple = "x86_64-pc-linux-gnu"

%struct.ossl_param_st = type { ptr, i32, ptr, i64, i64 }
%struct.evp_pkey_ctx_st = type { i32, ptr, ptr, ptr, ptr, %union.anon, %struct.anon.4, ptr, ptr, ptr, i32, i32, ptr, ptr, ptr, ptr, ptr, i8, ptr }
%union.anon = type { %struct.anon.0 }
%struct.anon.0 = type { ptr, ptr }
%struct.anon.4 = type { ptr, ptr, i64, i8 }

@.str.5 = private unnamed_addr constant [32 x i8] c"../openssl/crypto/evp/dh_ctrl.c\00", align 1
@__func__.EVP_PKEY_CTX_set_dh_pad = private unnamed_addr constant [24 x i8] c"EVP_PKEY_CTX_set_dh_pad\00", align 1
@.str.6 = private unnamed_addr constant [4 x i8] c"pad\00", align 1

; Function Attrs: nounwind uwtable
define i32 @EVP_PKEY_CTX_set_dh_pad(ptr noundef %0, i32 noundef %1) #0 {
  %3 = alloca i32, align 4
  %4 = alloca ptr, align 8
  %5 = alloca i32, align 4
  %6 = alloca [2 x %struct.ossl_param_st], align 16
  %7 = alloca i32, align 4
  %8 = alloca i32, align 4
  %9 = alloca %struct.ossl_param_st, align 8
  %10 = alloca %struct.ossl_param_st, align 8
  store ptr %0, ptr %4, align 8, !tbaa !3
  store i32 %1, ptr %5, align 4, !tbaa !8
  call void @llvm.lifetime.start.p0(i64 80, ptr %6) #4
  call void @llvm.lifetime.start.p0(i64 4, ptr %7) #4
  %11 = load i32, ptr %5, align 4, !tbaa !8
  store i32 %11, ptr %7, align 4, !tbaa !8
  %12 = load ptr, ptr %4, align 8, !tbaa !3
  %13 = icmp eq ptr %12, null
  br i1 %13, label %20, label %14

14:                                               ; preds = %2
  %15 = load ptr, ptr %4, align 8, !tbaa !3
  %16 = getelementptr inbounds nuw %struct.evp_pkey_ctx_st, ptr %15, i32 0, i32 0
  %17 = load i32, ptr %16, align 8, !tbaa !18
  %18 = and i32 %17, 2048
  %19 = icmp ne i32 %18, 0
  br i1 %19, label %21, label %20

20:                                               ; preds = %14, %2
  call void @ERR_new()
  call void @ERR_set_debug(ptr noundef @.str.5, i32 noundef 166, ptr noundef @__func__.EVP_PKEY_CTX_set_dh_pad)
  call void (i32, i32, ptr, ...) @ERR_set_error(i32 noundef 6, i32 noundef 147, ptr noundef null)
  store i32 -2, ptr %3, align 4
  store i32 1, ptr %8, align 4
  br label %27

21:                                               ; preds = %14
  %22 = getelementptr inbounds [2 x %struct.ossl_param_st], ptr %6, i64 0, i64 0
  call void @llvm.lifetime.start.p0(i64 40, ptr %9) #4
  call void @OSSL_PARAM_construct_uint(ptr dead_on_unwind writable sret(%struct.ossl_param_st) align 8 %9, ptr noundef @.str.6, ptr noundef %7)
  call void @llvm.memcpy.p0.p0.i64(ptr align 16 %22, ptr align 8 %9, i64 40, i1 false), !tbaa.struct !12
  call void @llvm.lifetime.end.p0(i64 40, ptr %9) #4
  %23 = getelementptr inbounds [2 x %struct.ossl_param_st], ptr %6, i64 0, i64 1
  call void @llvm.lifetime.start.p0(i64 40, ptr %10) #4
  call void @OSSL_PARAM_construct_end(ptr dead_on_unwind writable sret(%struct.ossl_param_st) align 8 %10)
  call void @llvm.memcpy.p0.p0.i64(ptr align 8 %23, ptr align 8 %10, i64 40, i1 false), !tbaa.struct !12
  call void @llvm.lifetime.end.p0(i64 40, ptr %10) #4
  %24 = load ptr, ptr %4, align 8, !tbaa !3
  %25 = getelementptr inbounds [2 x %struct.ossl_param_st], ptr %6, i64 0, i64 0
  %26 = call i32 @evp_pkey_ctx_set_params_strict(ptr noundef %24, ptr noundef %25)
  store i32 %26, ptr %3, align 4
  store i32 1, ptr %8, align 4
  br label %27

27:                                               ; preds = %21, %20
  call void @llvm.lifetime.end.p0(i64 4, ptr %7) #4
  call void @llvm.lifetime.end.p0(i64 80, ptr %6) #4
  %28 = load i32, ptr %3, align 4
  ret i32 %28
}